; ModuleID = '5/432.c'
source_filename = "5/432.c"
target datalayout = "e-m:e-p270:32:32-p271:32:32-p272:64:64-i64:64-f80:128-n8:16:32:64-S128"
target triple = "x86_64-pc-linux-gnu"

@.str = private unnamed_addr constant [5 x i8] c"%lf\0A\00", align 1
@.str.1 = private unnamed_addr constant [6 x i8] c"error\00", align 1
@.str.2 = private unnamed_addr constant [4 x i8] c"yes\00", align 1
@.str.3 = private unnamed_addr constant [3 x i8] c"no\00", align 1

; Function Attrs: noinline nounwind uwtable
define dso_local i32 @main() #0 {
  %1 = alloca i32, align 4
  %2 = alloca double, align 8
  %3 = alloca double, align 8
  %4 = alloca double, align 8
  %5 = alloca double, align 8
  %6 = alloca [501 x i8], align 16
  %7 = alloca [501 x i8], align 16
  %8 = alloca i32, align 4
  %9 = alloca i32, align 4
  %10 = alloca i32, align 4
  %11 = alloca i32, align 4
  %12 = alloca i32, align 4
  %13 = alloca i32, align 4
  store i32 0, i32* %1, align 4
  %14 = call i32 (i8*, ...) @__isoc99_scanf(i8* getelementptr inbounds ([5 x i8], [5 x i8]* @.str, i64 0, i64 0), double* %2)
  %15 = getelementptr inbounds [501 x i8], [501 x i8]* %6, i64 0, i64 0
  %16 = call i32 (i8*, ...) bitcast (i32 (...)* @gets to i32 (i8*, ...)*)(i8* %15)
  %17 = getelementptr inbounds [501 x i8], [501 x i8]* %7, i64 0, i64 0
  %18 = call i32 (i8*, ...) bitcast (i32 (...)* @gets to i32 (i8*, ...)*)(i8* %17)
  store i32 0, i32* %10, align 4
  store i32 0, i32* %11, align 4
  store i32 0, i32* %12, align 4
  %19 = getelementptr inbounds [501 x i8], [501 x i8]* %6, i64 0, i64 0
  %20 = call i64 @strlen(i8* %19) #3
  %21 = trunc i64 %20 to i32
  store i32 %21, i32* %8, align 4
  %22 = getelementptr inbounds [501 x i8], [501 x i8]* %7, i64 0, i64 0
  %23 = call i64 @strlen(i8* %22) #3
  %24 = trunc i64 %23 to i32
  store i32 %24, i32* %9, align 4
  %25 = load i32, i32* %8, align 4
  %26 = load i32, i32* %9, align 4
  %27 = icmp ne i32 %25, %26
  br i1 %27, label %28, label %29

28:                                               ; preds = %0
  store i32 0, i32* %10, align 4
  br label %113

29:                                               ; preds = %0
  store i32 1, i32* %10, align 4
  store i32 0, i32* %13, align 4
  br label %30

30:                                               ; preds = %109, %29
  %31 = load i32, i32* %13, align 4
  %32 = load i32, i32* %8, align 4
  %33 = icmp slt i32 %31, %32
  br i1 %33, label %34, label %112

34:                                               ; preds = %30
  %35 = load i32, i32* %13, align 4
  %36 = sext i32 %35 to i64
  %37 = getelementptr inbounds [501 x i8], [501 x i8]* %6, i64 0, i64 %36
  %38 = load i8, i8* %37, align 1
  %39 = sext i8 %38 to i32
  %40 = icmp ne i32 %39, 65
  br i1 %40, label %41, label %62

41:                                               ; preds = %34
  %42 = load i32, i32* %13, align 4
  %43 = sext i32 %42 to i64
  %44 = getelementptr inbounds [501 x i8], [501 x i8]* %6, i64 0, i64 %43
  %45 = load i8, i8* %44, align 1
  %46 = sext i8 %45 to i32
  %47 = icmp ne i32 %46, 84
  br i1 %47, label %48, label %62

48:                                               ; preds = %41
  %49 = load i32, i32* %13, align 4
  %50 = sext i32 %49 to i64
  %51 = getelementptr inbounds [501 x i8], [501 x i8]* %6, i64 0, i64 %50
  %52 = load i8, i8* %51, align 1
  %53 = sext i8 %52 to i32
  %54 = icmp ne i32 %53, 67
  br i1 %54, label %55, label %62

55:                                               ; preds = %48
  %56 = load i32, i32* %13, align 4
  %57 = sext i32 %56 to i64
  %58 = getelementptr inbounds [501 x i8], [501 x i8]* %6, i64 0, i64 %57
  %59 = load i8, i8* %58, align 1
  %60 = sext i8 %59 to i32
  %61 = icmp ne i32 %60, 71
  br i1 %61, label %90, label %62

62:                                               ; preds = %55, %48, %41, %34
  %63 = load i32, i32* %13, align 4
  %64 = sext i32 %63 to i64
  %65 = getelementptr inbounds [501 x i8], [501 x i8]* %7, i64 0, i64 %64
  %66 = load i8, i8* %65, align 1
  %67 = sext i8 %66 to i32
  %68 = icmp ne i32 %67, 65
  br i1 %68, label %69, label %93

69:                                               ; preds = %62
  %70 = load i32, i32* %13, align 4
  %71 = sext i32 %70 to i64
  %72 = getelementptr inbounds [501 x i8], [501 x i8]* %7, i64 0, i64 %71
  %73 = load i8, i8* %72, align 1
  %74 = sext i8 %73 to i32
  %75 = icmp ne i32 %74, 84
  br i1 %75, label %76, label %93

76:                                               ; preds = %69
  %77 = load i32, i32* %13, align 4
  %78 = sext i32 %77 to i64
  %79 = getelementptr inbounds [501 x i8], [501 x i8]* %7, i64 0, i64 %78
  %80 = load i8, i8* %79, align 1
  %81 = sext i8 %80 to i32
  %82 = icmp ne i32 %81, 67
  br i1 %82, label %83, label %93

83:                                               ; preds = %76
  %84 = load i32, i32* %13, align 4
  %85 = sext i32 %84 to i64
  %86 = getelementptr inbounds [501 x i8], [501 x i8]* %7, i64 0, i64 %85
  %87 = load i8, i8* %86, align 1
  %88 = sext i8 %87 to i32
  %89 = icmp ne i32 %88, 71
  br i1 %89, label %90, label %93

90:                                               ; preds = %83, %55
  %91 = load i32, i32* %11, align 4
  %92 = add nsw i32 %91, 1
  store i32 %92, i32* %11, align 4
  br label %93

93:                                               ; preds = %90, %83, %76, %69, %62
  %94 = load i32, i32* %13, align 4
  %95 = sext i32 %94 to i64
  %96 = getelementptr inbounds [501 x i8], [501 x i8]* %6, i64 0, i64 %95
  %97 = load i8, i8* %96, align 1
  %98 = sext i8 %97 to i32
  %99 = load i32, i32* %13, align 4
  %100 = sext i32 %99 to i64
  %101 = getelementptr inbounds [501 x i8], [501 x i8]* %7, i64 0, i64 %100
  %102 = load i8, i8* %101, align 1
  %103 = sext i8 %102 to i32
  %104 = icmp eq i32 %98, %103
  br i1 %104, label %105, label %108

105:                                              ; preds = %93
  %106 = load i32, i32* %12, align 4
  %107 = add nsw i32 %106, 1
  store i32 %107, i32* %12, align 4
  br label %108

108:                                              ; preds = %105, %93
  br label %109

109:                                              ; preds = %108
  %110 = load i32, i32* %13, align 4
  %111 = add nsw i32 %110, 1
  store i32 %111, i32* %13, align 4
  br label %30

112:                                              ; preds = %30
  br label %113

113:                                              ; preds = %112, %28
  %114 = load i32, i32* %10, align 4
  %115 = icmp eq i32 %114, 0
  br i1 %115, label %119, label %116

116:                                              ; preds = %113
  %117 = load i32, i32* %11, align 4
  %118 = icmp ne i32 %117, 0
  br i1 %118, label %119, label %121

119:                                              ; preds = %116, %113
  %120 = call i32 (i8*, ...) @printf(i8* getelementptr inbounds ([6 x i8], [6 x i8]* @.str.1, i64 0, i64 0))
  br label %121

121:                                              ; preds = %119, %116
  %122 = load i32, i32* %10, align 4
  %123 = icmp ne i32 %122, 0
  br i1 %123, label %124, label %149

124:                                              ; preds = %121
  %125 = load i32, i32* %11, align 4
  %126 = icmp eq i32 %125, 0
  br i1 %126, label %127, label %149

127:                                              ; preds = %124
  %128 = load i32, i32* %12, align 4
  %129 = sitofp i32 %128 to double
  %130 = fmul double %129, 1.000000e+00
  store double %130, double* %4, align 8
  %131 = load i32, i32* %8, align 4
  %132 = sitofp i32 %131 to double
  %133 = fmul double %132, 1.000000e+00
  store double %133, double* %5, align 8
  %134 = load double, double* %4, align 8
  %135 = load double, double* %5, align 8
  %136 = fdiv double %134, %135
  store double %136, double* %3, align 8
  %137 = load double, double* %3, align 8
  %138 = load double, double* %2, align 8
  %139 = fcmp oge double %137, %138
  br i1 %139, label %140, label %142

140:                                              ; preds = %127
  %141 = call i32 (i8*, ...) @printf(i8* getelementptr inbounds ([4 x i8], [4 x i8]* @.str.2, i64 0, i64 0))
  br label %142

142:                                              ; preds = %140, %127
  %143 = load double, double* %3, align 8
  %144 = load double, double* %2, align 8
  %145 = fcmp olt double %143, %144
  br i1 %145, label %146, label %148

146:                                              ; preds = %142
  %147 = call i32 (i8*, ...) @printf(i8* getelementptr inbounds ([3 x i8], [3 x i8]* @.str.3, i64 0, i64 0))
  br label %148

148:                                              ; preds = %146, %142
  br label %149

149:                                              ; preds = %148, %124, %121
  %150 = load i32, i32* %1, align 4
  ret i32 %150
}

declare dso_local i32 @__isoc99_scanf(i8*, ...) #1

declare dso_local i32 @gets(...) #1

; Function Attrs: nounwind readonly
declare dso_local i64 @strlen(i8*) #2

declare dso_local i32 @printf(i8*, ...) #1


!llvm.module.flags = !{!0}
!llvm.ident = !{!1}

!0 = !{i32 1, !"wchar_size", i32 4}
!1 = !{!"clang version 10.0.0-4ubuntu1 "}
